target datalayout = "e-m:e-p270:32:32-p271:32:32-p272:64:64-i64:64-i128:128-f80:128-n8:16:32:64-S128"
target triple = "x86_64-pc-linux-gnu"

%struct.Float4X4 = type { %union.anon }
%union.anon = type { %struct.anon }
%struct.anon = type { float, float, float, float, float, float, float, float, float, float, float, float, float, float, float, float }
%struct.SDL_Renderer = type { ptr, ptr, ptr, ptr, ptr, ptr, ptr, ptr, ptr, ptr, ptr, ptr, ptr, ptr, ptr, ptr, ptr, ptr, ptr, ptr, ptr, ptr, ptr, ptr, ptr, ptr, ptr, ptr, ptr, ptr, i32, i8, ptr, i8, i8, i8, i64, i64, ptr, %struct.SDL_RenderViewState, %struct.SDL_FPoint, i32, i32, ptr, ptr, ptr, i32, float, float, float, float, %struct.SDL_FColor, i32, i32, i32, ptr, ptr, ptr, ptr, i32, %struct.SDL_FColor, float, %struct.SDL_Rect, %struct.SDL_Rect, i8, i8, i8, i8, ptr, i64, i64, i8, ptr, ptr, i32, ptr, i8, ptr, ptr }
%struct.SDL_RenderViewState = type { i32, i32, %struct.SDL_Rect, %struct.SDL_Rect, %struct.SDL_Rect, %struct.SDL_Rect, i8, %struct.SDL_FPoint, i32, i32, i32, %struct.SDL_FRect, %struct.SDL_FRect, %struct.SDL_FPoint, %struct.SDL_FPoint, %struct.SDL_FPoint }
%struct.SDL_FRect = type { float, float, float, float }
%struct.SDL_FPoint = type { float, float }
%struct.SDL_FColor = type { float, float, float, float }
%struct.SDL_Rect = type { i32, i32, i32, i32 }
%struct.VULKAN_RenderData = type { ptr, ptr, i8, ptr, i8, ptr, %struct.VkPhysicalDeviceProperties, %struct.VkPhysicalDeviceMemoryProperties, %struct.VkPhysicalDeviceFeatures, ptr, ptr, ptr, i8, i32, i32, ptr, ptr, ptr, i32, ptr, ptr, %struct.VkSurfaceCapabilitiesKHR, ptr, i8, i32, i32, ptr, [2 x ptr], ptr, [3 x ptr], [3 x ptr], ptr, ptr, [256 x %struct.VULKAN_Buffer], %struct.VULKAN_VertexShaderConstants, ptr, ptr, ptr, ptr, i32, i32, [8 x ptr], ptr, ptr, i32, i32, i32, ptr, ptr, i8, i8, i8, i32, i32, i32, %struct.VkSurfaceFormatKHR, %struct.VkExtent2D, i32, i32, ptr, ptr, ptr, ptr, ptr, ptr, i32, ptr, ptr, i32, i32, ptr, i32, i32, ptr, i8, i8, %struct.SDL_Rect, %struct.SDL_Rect, i32, i8, %struct.Float4X4, %struct.VkComponentMapping, i32, i8 }
%struct.VkPhysicalDeviceProperties = type { i32, i32, i32, i32, i32, [256 x i8], [16 x i8], %struct.VkPhysicalDeviceLimits, %struct.VkPhysicalDeviceSparseProperties }
%struct.VkPhysicalDeviceLimits = type { i32, i32, i32, i32, i32, i32, i32, i32, i32, i32, i32, i64, i64, i32, i32, i32, i32, i32, i32, i32, i32, i32, i32, i32, i32, i32, i32, i32, i32, i32, i32, i32, i32, i32, i32, i32, i32, i32, i32, i32, i32, i32, i32, i32, i32, i32, i32, i32, i32, i32, i32, i32, [3 x i32], i32, [3 x i32], i32, i32, i32, i32, i32, float, float, i32, [2 x i32], [2 x float], i32, i64, i64, i64, i64, i32, i32, i32, i32, float, float, i32, i32, i32, i32, i32, i32, i32, i32, i32, i32, i32, i32, i32, i32, i32, i32, float, i32, i32, i32, i32, [2 x float], [2 x float], float, float, i32, i32, i64, i64, i64 }
%struct.VkPhysicalDeviceSparseProperties = type { i32, i32, i32, i32, i32 }
%struct.VkPhysicalDeviceMemoryProperties = type { i32, [32 x %struct.VkMemoryType], i32, [16 x %struct.VkMemoryHeap] }
%struct.VkMemoryType = type { i32, i32 }
%struct.VkMemoryHeap = type { i64, i32 }
%struct.VkPhysicalDeviceFeatures = type { i32, i32, i32, i32, i32, i32, i32, i32, i32, i32, i32, i32, i32, i32, i32, i32, i32, i32, i32, i32, i32, i32, i32, i32, i32, i32, i32, i32, i32, i32, i32, i32, i32, i32, i32, i32, i32, i32, i32, i32, i32, i32, i32, i32, i32, i32, i32, i32, i32, i32, i32, i32, i32, i32, i32 }
%struct.VkSurfaceCapabilitiesKHR = type { i32, i32, %struct.VkExtent2D, %struct.VkExtent2D, %struct.VkExtent2D, i32, i32, i32, i32, i32 }
%struct.VULKAN_Buffer = type { ptr, ptr, i64, ptr }
%struct.VULKAN_VertexShaderConstants = type { %struct.Float4X4, %struct.Float4X4 }
%struct.VkSurfaceFormatKHR = type { i32, i32 }
%struct.VkExtent2D = type { i32, i32 }
%struct.VkComponentMapping = type { i32, i32, i32, i32 }

; Function Attrs: nounwind uwtable
define internal zeroext i1 @VULKAN_AddVulkanRenderSemaphores(ptr noundef %0, i32 noundef %1, i64 noundef %2, i64 noundef %3) #0 {
  %5 = alloca i1, align 1
  %6 = alloca ptr, align 8
  %7 = alloca i32, align 4
  %8 = alloca i64, align 8
  %9 = alloca i64, align 8
  %10 = alloca ptr, align 8
  %11 = alloca ptr, align 8
  %12 = alloca i32, align 4
  %13 = alloca ptr, align 8
  %14 = alloca ptr, align 8
  store ptr %0, ptr %6, align 8
  store i32 %1, ptr %7, align 4
  store i64 %2, ptr %8, align 8
  store i64 %3, ptr %9, align 8
  call void @llvm.lifetime.start.p0(i64 8, ptr %10) #6
  %15 = load ptr, ptr %6, align 8
  %16 = getelementptr inbounds nuw %struct.SDL_Renderer, ptr %15, i32 0, i32 77
  %17 = load ptr, ptr %16, align 8
  store ptr %17, ptr %10, align 8
  %18 = load i64, ptr %8, align 8
  %19 = icmp ne i64 %18, 0
  br i1 %19, label %20, label %95

20:                                               ; preds = %4
  %21 = load ptr, ptr %10, align 8
  %22 = getelementptr inbounds nuw %struct.VULKAN_RenderData, ptr %21, i32 0, i32 68
  %23 = load i32, ptr %22, align 8
  %24 = load ptr, ptr %10, align 8
  %25 = getelementptr inbounds nuw %struct.VULKAN_RenderData, ptr %24, i32 0, i32 69
  %26 = load i32, ptr %25, align 4
  %27 = icmp eq i32 %23, %26
  br i1 %27, label %28, label %71

28:                                               ; preds = %20
  call void @llvm.lifetime.start.p0(i64 8, ptr %11) #6
  %29 = load ptr, ptr %10, align 8
  %30 = getelementptr inbounds nuw %struct.VULKAN_RenderData, ptr %29, i32 0, i32 66
  %31 = load ptr, ptr %30, align 8
  %32 = load ptr, ptr %10, align 8
  %33 = getelementptr inbounds nuw %struct.VULKAN_RenderData, ptr %32, i32 0, i32 69
  %34 = load i32, ptr %33, align 4
  %35 = add i32 %34, 2
  %36 = zext i32 %35 to i64
  %37 = mul i64 %36, 4
  %38 = call ptr @SDL_realloc_REAL(ptr noundef %31, i64 noundef %37) #9
  store ptr %38, ptr %11, align 8
  %39 = load ptr, ptr %11, align 8
  %40 = icmp ne ptr %39, null
  br i1 %40, label %42, label %41

41:                                               ; preds = %28
  store i1 false, ptr %5, align 1
  store i32 1, ptr %12, align 4
  br label %68

42:                                               ; preds = %28
  %43 = load ptr, ptr %11, align 8
  %44 = load ptr, ptr %10, align 8
  %45 = getelementptr inbounds nuw %struct.VULKAN_RenderData, ptr %44, i32 0, i32 66
  store ptr %43, ptr %45, align 8
  call void @llvm.lifetime.start.p0(i64 8, ptr %13) #6
  %46 = load ptr, ptr %10, align 8
  %47 = getelementptr inbounds nuw %struct.VULKAN_RenderData, ptr %46, i32 0, i32 67
  %48 = load ptr, ptr %47, align 8
  %49 = load ptr, ptr %10, align 8
  %50 = getelementptr inbounds nuw %struct.VULKAN_RenderData, ptr %49, i32 0, i32 69
  %51 = load i32, ptr %50, align 4
  %52 = add i32 %51, 2
  %53 = zext i32 %52 to i64
  %54 = mul i64 %53, 8
  %55 = call ptr @SDL_realloc_REAL(ptr noundef %48, i64 noundef %54) #9
  store ptr %55, ptr %13, align 8
  %56 = load ptr, ptr %13, align 8
  %57 = icmp ne ptr %56, null
  br i1 %57, label %59, label %58

58:                                               ; preds = %42
  store i1 false, ptr %5, align 1
  store i32 1, ptr %12, align 4
  br label %67

59:                                               ; preds = %42
  %60 = load ptr, ptr %13, align 8
  %61 = load ptr, ptr %10, align 8
  %62 = getelementptr inbounds nuw %struct.VULKAN_RenderData, ptr %61, i32 0, i32 67
  store ptr %60, ptr %62, align 8
  %63 = load ptr, ptr %10, align 8
  %64 = getelementptr inbounds nuw %struct.VULKAN_RenderData, ptr %63, i32 0, i32 69
  %65 = load i32, ptr %64, align 4
  %66 = add i32 %65, 1
  store i32 %66, ptr %64, align 4
  store i32 0, ptr %12, align 4
  br label %67

67:                                               ; preds = %59, %58
  call void @llvm.lifetime.end.p0(i64 8, ptr %13) #6
  br label %68

68:                                               ; preds = %67, %41
  call void @llvm.lifetime.end.p0(i64 8, ptr %11) #6
  %69 = load i32, ptr %12, align 4
  switch i32 %69, label %147 [
    i32 0, label %70
  ]

70:                                               ; preds = %68
  br label %71

71:                                               ; preds = %70, %20
  %72 = load i32, ptr %7, align 4
  %73 = load ptr, ptr %10, align 8
  %74 = getelementptr inbounds nuw %struct.VULKAN_RenderData, ptr %73, i32 0, i32 66
  %75 = load ptr, ptr %74, align 8
  %76 = load ptr, ptr %10, align 8
  %77 = getelementptr inbounds nuw %struct.VULKAN_RenderData, ptr %76, i32 0, i32 68
  %78 = load i32, ptr %77, align 8
  %79 = zext i32 %78 to i64
  %80 = getelementptr inbounds nuw i32, ptr %75, i64 %79
  store i32 %72, ptr %80, align 4
  %81 = load i64, ptr %8, align 8
  %82 = inttoptr i64 %81 to ptr
  %83 = load ptr, ptr %10, align 8
  %84 = getelementptr inbounds nuw %struct.VULKAN_RenderData, ptr %83, i32 0, i32 67
  %85 = load ptr, ptr %84, align 8
  %86 = load ptr, ptr %10, align 8
  %87 = getelementptr inbounds nuw %struct.VULKAN_RenderData, ptr %86, i32 0, i32 68
  %88 = load i32, ptr %87, align 8
  %89 = zext i32 %88 to i64
  %90 = getelementptr inbounds nuw ptr, ptr %85, i64 %89
  store ptr %82, ptr %90, align 8
  %91 = load ptr, ptr %10, align 8
  %92 = getelementptr inbounds nuw %struct.VULKAN_RenderData, ptr %91, i32 0, i32 68
  %93 = load i32, ptr %92, align 8
  %94 = add i32 %93, 1
  store i32 %94, ptr %92, align 8
  br label %95

95:                                               ; preds = %71, %4
  %96 = load i64, ptr %9, align 8
  %97 = icmp ne i64 %96, 0
  br i1 %97, label %98, label %146

98:                                               ; preds = %95
  %99 = load ptr, ptr %10, align 8
  %100 = getelementptr inbounds nuw %struct.VULKAN_RenderData, ptr %99, i32 0, i32 71
  %101 = load i32, ptr %100, align 8
  %102 = load ptr, ptr %10, align 8
  %103 = getelementptr inbounds nuw %struct.VULKAN_RenderData, ptr %102, i32 0, i32 72
  %104 = load i32, ptr %103, align 4
  %105 = icmp eq i32 %101, %104
  br i1 %105, label %106, label %131

106:                                              ; preds = %98
  call void @llvm.lifetime.start.p0(i64 8, ptr %14) #6
  %107 = load ptr, ptr %10, align 8
  %108 = getelementptr inbounds nuw %struct.VULKAN_RenderData, ptr %107, i32 0, i32 70
  %109 = load ptr, ptr %108, align 8
  %110 = load ptr, ptr %10, align 8
  %111 = getelementptr inbounds nuw %struct.VULKAN_RenderData, ptr %110, i32 0, i32 72
  %112 = load i32, ptr %111, align 4
  %113 = add i32 %112, 2
  %114 = zext i32 %113 to i64
  %115 = mul i64 %114, 8
  %116 = call ptr @SDL_realloc_REAL(ptr noundef %109, i64 noundef %115) #9
  store ptr %116, ptr %14, align 8
  %117 = load ptr, ptr %14, align 8
  %118 = icmp ne ptr %117, null
  br i1 %118, label %120, label %119

119:                                              ; preds = %106
  store i1 false, ptr %5, align 1
  store i32 1, ptr %12, align 4
  br label %128

120:                                              ; preds = %106
  %121 = load ptr, ptr %14, align 8
  %122 = load ptr, ptr %10, align 8
  %123 = getelementptr inbounds nuw %struct.VULKAN_RenderData, ptr %122, i32 0, i32 70
  store ptr %121, ptr %123, align 8
  %124 = load ptr, ptr %10, align 8
  %125 = getelementptr inbounds nuw %struct.VULKAN_RenderData, ptr %124, i32 0, i32 72
  %126 = load i32, ptr %125, align 4
  %127 = add i32 %126, 1
  store i32 %127, ptr %125, align 4
  store i32 0, ptr %12, align 4
  br label %128

128:                                              ; preds = %120, %119
  call void @llvm.lifetime.end.p0(i64 8, ptr %14) #6
  %129 = load i32, ptr %12, align 4
  switch i32 %129, label %147 [
    i32 0, label %130
  ]

130:                                              ; preds = %128
  br label %131

131:                                              ; preds = %130, %98
  %132 = load i64, ptr %9, align 8
  %133 = inttoptr i64 %132 to ptr
  %134 = load ptr, ptr %10, align 8
  %135 = getelementptr inbounds nuw %struct.VULKAN_RenderData, ptr %134, i32 0, i32 70
  %136 = load ptr, ptr %135, align 8
  %137 = load ptr, ptr %10, align 8
  %138 = getelementptr inbounds nuw %struct.VULKAN_RenderData, ptr %137, i32 0, i32 71
  %139 = load i32, ptr %138, align 8
  %140 = zext i32 %139 to i64
  %141 = getelementptr inbounds nuw ptr, ptr %136, i64 %140
  store ptr %133, ptr %141, align 8
  %142 = load ptr, ptr %10, align 8
  %143 = getelementptr inbounds nuw %struct.VULKAN_RenderData, ptr %142, i32 0, i32 71
  %144 = load i32, ptr %143, align 8
  %145 = add i32 %144, 1
  store i32 %145, ptr %143, align 8
  br label %146

146:                                              ; preds = %131, %95
  store i1 true, ptr %5, align 1
  store i32 1, ptr %12, align 4
  br label %147

147:                                              ; preds = %146, %128, %68
  call void @llvm.lifetime.end.p0(i64 8, ptr %10) #6
  %148 = load i1, ptr %5, align 1
  ret i1 %148
}