; Function Attrs: nounwind uwtable
define internal noundef zeroext i1 @VULKAN_AddVulkanRenderSemaphores(ptr noundef readonly captures(none) %0, i32 noundef %1, i64 noundef %2, i64 noundef %3) #0 {
  %5 = getelementptr inbounds nuw i8, ptr %0, i64 696
  %6 = load ptr, ptr %5, align 8
  %.not = icmp eq i64 %2, 0
  br i1 %.not, label %45, label %7

7:                                                ; preds = %4
  %8 = getelementptr inbounds nuw i8, ptr %6, i64 10464
  %9 = load i32, ptr %8, align 8
  %10 = getelementptr inbounds nuw i8, ptr %6, i64 10468
  %11 = load i32, ptr %10, align 4
  %12 = icmp eq i32 %9, %11
  br i1 %12, label %13, label %31

13:                                               ; preds = %7
  %14 = getelementptr inbounds nuw i8, ptr %6, i64 10448
  %15 = load ptr, ptr %14, align 8
  %16 = add i32 %9, 2
  %17 = zext i32 %16 to i64
  %18 = shl nuw nsw i64 %17, 2
  %19 = tail call ptr @SDL_realloc_REAL(ptr noundef %15, i64 noundef %18) #12
  %.not47 = icmp eq ptr %19, null
  br i1 %.not47, label %.critedge, label %20

20:                                               ; preds = %13
  store ptr %19, ptr %14, align 8
  %21 = getelementptr inbounds nuw i8, ptr %6, i64 10456
  %22 = load ptr, ptr %21, align 8
  %23 = load i32, ptr %10, align 4
  %24 = add i32 %23, 2
  %25 = zext i32 %24 to i64
  %26 = shl nuw nsw i64 %25, 3
  %27 = tail call ptr @SDL_realloc_REAL(ptr noundef %22, i64 noundef %26) #12
  %.not48.not = icmp eq ptr %27, null
  br i1 %.not48.not, label %.critedge, label %28

28:                                               ; preds = %20
  store ptr %27, ptr %21, align 8
  %29 = load i32, ptr %10, align 4
  %30 = add i32 %29, 1
  store i32 %30, ptr %10, align 4
  %.pre = load i32, ptr %8, align 8
  br label %31

31:                                               ; preds = %28, %7
  %32 = phi i32 [ %.pre, %28 ], [ %9, %7 ]
  %33 = getelementptr inbounds nuw i8, ptr %6, i64 10448
  %34 = load ptr, ptr %33, align 8
  %35 = zext i32 %32 to i64
  %36 = getelementptr inbounds nuw i32, ptr %34, i64 %35
  store i32 %1, ptr %36, align 4
  %37 = inttoptr i64 %2 to ptr
  %38 = getelementptr inbounds nuw i8, ptr %6, i64 10456
  %39 = load ptr, ptr %38, align 8
  %40 = load i32, ptr %8, align 8
  %41 = zext i32 %40 to i64
  %42 = getelementptr inbounds nuw ptr, ptr %39, i64 %41
  store ptr %37, ptr %42, align 8
  %43 = load i32, ptr %8, align 8
  %44 = add i32 %43, 1
  store i32 %44, ptr %8, align 8
  br label %45

45:                                               ; preds = %31, %4
  %.not49 = icmp eq i64 %3, 0
  br i1 %.not49, label %.critedge, label %46

46:                                               ; preds = %45
  %47 = getelementptr inbounds nuw i8, ptr %6, i64 10480
  %48 = load i32, ptr %47, align 8
  %49 = getelementptr inbounds nuw i8, ptr %6, i64 10484
  %50 = load i32, ptr %49, align 4
  %51 = icmp eq i32 %48, %50
  %52 = getelementptr inbounds nuw i8, ptr %6, i64 10472
  %53 = load ptr, ptr %52, align 8
  br i1 %51, label %54, label %._crit_edge

54:                                               ; preds = %46
  %55 = add i32 %48, 2
  %56 = zext i32 %55 to i64
  %57 = shl nuw nsw i64 %56, 3
  %58 = tail call ptr @SDL_realloc_REAL(ptr noundef %53, i64 noundef %57) #12
  %.not50.not = icmp eq ptr %58, null
  br i1 %.not50.not, label %.critedge, label %59

59:                                               ; preds = %54
  store ptr %58, ptr %52, align 8
  %60 = load i32, ptr %49, align 4
  %61 = add i32 %60, 1
  store i32 %61, ptr %49, align 4
  %.pre56 = load i32, ptr %47, align 8
  br label %._crit_edge

._crit_edge:                                      ; preds = %46, %59
  %62 = phi i32 [ %.pre56, %59 ], [ %48, %46 ]
  %63 = phi ptr [ %58, %59 ], [ %53, %46 ]
  %64 = inttoptr i64 %3 to ptr
  %65 = zext i32 %62 to i64
  %66 = getelementptr inbounds nuw ptr, ptr %63, i64 %65
  store ptr %64, ptr %66, align 8
  %67 = load i32, ptr %47, align 8
  %68 = add i32 %67, 1
  store i32 %68, ptr %47, align 8
  br label %.critedge

.critedge:                                        ; preds = %54, %20, %13, %45, %._crit_edge
  %.4 = phi i1 [ true, %._crit_edge ], [ true, %45 ], [ false, %13 ], [ false, %20 ], [ false, %54 ]
  ret i1 %.4
}